; Function Attrs: nounwind uwtable
define noundef ptr @Llb_ManGroupCreateLast(ptr noundef %0) local_unnamed_addr #3 {
  %2 = tail call ptr @Llb_ManGroupAlloc(ptr noundef %0)
  %3 = getelementptr inbounds nuw i8, ptr %0, i64 16
  %4 = load ptr, ptr %3, align 8, !tbaa !42
  %5 = getelementptr i8, ptr %4, i64 104
  %.val911 = load i32, ptr %5, align 8, !tbaa !48
  %6 = icmp sgt i32 %.val911, 0
  br i1 %6, label %.lr.ph, label %.critedge

.lr.ph:                                           ; preds = %1
  %7 = getelementptr inbounds nuw i8, ptr %2, i64 8
  br label %8

8:                                                ; preds = %.lr.ph, %Vec_PtrPush.exit
  %9 = phi ptr [ %4, %.lr.ph ], [ %51, %Vec_PtrPush.exit ]
  %.012 = phi i32 [ 0, %.lr.ph ], [ %50, %Vec_PtrPush.exit ]
  %10 = getelementptr inbounds nuw i8, ptr %9, i64 24
  %11 = load ptr, ptr %10, align 8, !tbaa !52
  %12 = getelementptr i8, ptr %9, i64 112
  %.val10 = load i32, ptr %12, align 8, !tbaa !53
  %13 = add nsw i32 %.val10, %.012
  %14 = getelementptr i8, ptr %11, i64 8
  %.val = load ptr, ptr %14, align 8, !tbaa !15
  %15 = sext i32 %13 to i64
  %16 = getelementptr inbounds ptr, ptr %.val, i64 %15
  %17 = load ptr, ptr %16, align 8, !tbaa !26
  %18 = load ptr, ptr %7, align 8, !tbaa !16
  %19 = getelementptr inbounds nuw i8, ptr %18, i64 4
  %20 = load i32, ptr %19, align 4, !tbaa !12
  %21 = load i32, ptr %18, align 8, !tbaa !14
  %22 = icmp eq i32 %20, %21
  br i1 %22, label %23, label %.Vec_PtrGrow.exit11_crit_edge.i

.Vec_PtrGrow.exit11_crit_edge.i:                  ; preds = %8
  %.phi.trans.insert.i = getelementptr inbounds nuw i8, ptr %18, i64 8
  %.pre.i = load ptr, ptr %.phi.trans.insert.i, align 8, !tbaa !15
  br label %Vec_PtrPush.exit

23:                                               ; preds = %8
  %24 = icmp slt i32 %20, 16
  br i1 %24, label %25, label %33

25:                                               ; preds = %23
  %26 = getelementptr inbounds nuw i8, ptr %18, i64 8
  %27 = load ptr, ptr %26, align 8, !tbaa !15
  %.not9.i.i = icmp eq ptr %27, null
  br i1 %.not9.i.i, label %30, label %28

28:                                               ; preds = %25
  %29 = tail call dereferenceable_or_null(128) ptr @realloc(ptr noundef nonnull %27, i64 noundef 128) #15
  br label %Vec_PtrGrow.exit.i

30:                                               ; preds = %25
  %31 = tail call noalias dereferenceable_or_null(128) ptr @malloc(i64 noundef 128) #14
  br label %Vec_PtrGrow.exit.i

Vec_PtrGrow.exit.i:                               ; preds = %30, %28
  %32 = phi ptr [ %29, %28 ], [ %31, %30 ]
  store ptr %32, ptr %26, align 8, !tbaa !15
  store i32 16, ptr %18, align 8, !tbaa !14
  br label %Vec_PtrPush.exit

33:                                               ; preds = %23
  %34 = shl nuw nsw i32 %20, 1
  %35 = getelementptr inbounds nuw i8, ptr %18, i64 8
  %36 = load ptr, ptr %35, align 8, !tbaa !15
  %.not9.i10.i = icmp eq ptr %36, null
  %37 = zext nneg i32 %34 to i64
  %38 = shl nuw nsw i64 %37, 3
  br i1 %.not9.i10.i, label %41, label %39

39:                                               ; preds = %33
  %40 = tail call ptr @realloc(ptr noundef nonnull %36, i64 noundef %38) #15
  br label %43

41:                                               ; preds = %33
  %42 = tail call noalias ptr @malloc(i64 noundef %38) #14
  br label %43

43:                                               ; preds = %41, %39
  %44 = phi ptr [ %40, %39 ], [ %42, %41 ]
  store ptr %44, ptr %35, align 8, !tbaa !15
  store i32 %34, ptr %18, align 8, !tbaa !14
  br label %Vec_PtrPush.exit

Vec_PtrPush.exit:                                 ; preds = %.Vec_PtrGrow.exit11_crit_edge.i, %Vec_PtrGrow.exit.i, %43
  %45 = phi ptr [ %.pre.i, %.Vec_PtrGrow.exit11_crit_edge.i ], [ %44, %43 ], [ %32, %Vec_PtrGrow.exit.i ]
  %46 = load i32, ptr %19, align 4, !tbaa !12
  %47 = add nsw i32 %46, 1
  store i32 %47, ptr %19, align 4, !tbaa !12
  %48 = sext i32 %46 to i64
  %49 = getelementptr inbounds ptr, ptr %45, i64 %48
  store ptr %17, ptr %49, align 8, !tbaa !26
  %50 = add nuw nsw i32 %.012, 1
  %51 = load ptr, ptr %3, align 8, !tbaa !42
  %52 = getelementptr i8, ptr %51, i64 104
  %.val9 = load i32, ptr %52, align 8, !tbaa !48
  %53 = icmp slt i32 %50, %.val9
  br i1 %53, label %8, label %.critedge, !llvm.loop !54

.critedge:                                        ; preds = %Vec_PtrPush.exit, %1
  ret ptr %2
}